target datalayout = "e-m:e-p270:32:32-p271:32:32-p272:64:64-i64:64-i128:128-f80:128-n8:16:32:64-S128"
target triple = "x86_64-unknown-linux-gnu"

; Function Attrs: mustprogress nounwind uwtable
define dso_local void @_ZN4node12shadow_realm11ShadowRealm8DeleteMeEPv(ptr noundef %data) #4 align 2 {
entry:
  %data.addr = alloca ptr, align 8
  %realm = alloca ptr, align 8
  store ptr %data, ptr %data.addr, align 8
  %0 = load ptr, ptr %data.addr, align 8
  store ptr %0, ptr %realm, align 8
  %1 = load ptr, ptr %realm, align 8
  %isnull = icmp eq ptr %1, null
  br i1 %isnull, label %delete.end, label %delete.notnull

delete.notnull:                                   ; preds = %entry
  %vtable = load ptr, ptr %1, align 8
  %vfn = getelementptr inbounds ptr, ptr %vtable, i64 1
  %2 = load ptr, ptr %vfn, align 8
  call void %2(ptr noundef nonnull align 8 dereferenceable(872) %1) #3
  br label %delete.end

delete.end:                                       ; preds = %delete.notnull, %entry
  ret void
}